target datalayout = "e-m:e-p270:32:32-p271:32:32-p272:64:64-i64:64-i128:128-f80:128-n8:16:32:64-S128"
target triple = "x86_64-pc-linux-gnu"

; Function Attrs: inlinehint mustprogress nounwind uwtable
define linkonce_odr noundef float @_ZSt3sinf(float noundef %0) #3 comdat {
  %2 = alloca float, align 4
  store float %0, ptr %2, align 4, !tbaa !11
  %3 = load float, ptr %2, align 4, !tbaa !11
  %4 = call float @sinf(float noundef %3) #14, !tbaa !4
  ret float %4
}

; Function Attrs: inlinehint mustprogress nounwind uwtable
define linkonce_odr noundef float @_ZSt3cosf(float noundef %0) #3 comdat {
  %2 = alloca float, align 4
  store float %0, ptr %2, align 4, !tbaa !11
  %3 = load float, ptr %2, align 4, !tbaa !11
  %4 = call float @cosf(float noundef %3) #14, !tbaa !4
  ret float %4
}

; Function Attrs: inlinehint mustprogress nounwind uwtable
define linkonce_odr noundef float @_ZSt5atan2ff(float noundef %0, float noundef %1) #3 comdat {
  %3 = alloca float, align 4
  %4 = alloca float, align 4
  store float %0, ptr %3, align 4, !tbaa !11
  store float %1, ptr %4, align 4, !tbaa !11
  %5 = load float, ptr %3, align 4, !tbaa !11
  %6 = load float, ptr %4, align 4, !tbaa !11
  %7 = call float @atan2f(float noundef %5, float noundef %6) #14, !tbaa !4
  ret float %7
}

; Function Attrs: mustprogress uwtable
define internal noundef float @_ZL3rotPfPKf(ptr noundef %0, ptr noundef %1) #0 {
  %3 = alloca ptr, align 8
  %4 = alloca ptr, align 8
  %5 = alloca float, align 4
  %6 = alloca float, align 4
  %7 = alloca float, align 4
  %8 = alloca float, align 4
  %9 = alloca float, align 4
  %10 = alloca float, align 4
  store ptr %0, ptr %3, align 8, !tbaa !28
  store ptr %1, ptr %4, align 8, !tbaa !28
  call void @llvm.lifetime.start.p0(i64 4, ptr %5) #14
  call void @llvm.lifetime.start.p0(i64 4, ptr %6) #14
  call void @llvm.lifetime.start.p0(i64 4, ptr %7) #14
  call void @llvm.lifetime.start.p0(i64 4, ptr %8) #14
  call void @llvm.lifetime.start.p0(i64 4, ptr %9) #14
  call void @llvm.lifetime.start.p0(i64 4, ptr %10) #14
  %11 = load ptr, ptr %3, align 8, !tbaa !28
  %12 = getelementptr inbounds float, ptr %11, i64 1
  %13 = load float, ptr %12, align 4, !tbaa !11
  %14 = load ptr, ptr %3, align 8, !tbaa !28
  %15 = getelementptr inbounds float, ptr %14, i64 0
  %16 = load float, ptr %15, align 4, !tbaa !11
  %17 = call noundef float @_ZSt5atan2ff(float noundef %13, float noundef %16)
  store float %17, ptr %5, align 4, !tbaa !11
  %18 = load float, ptr %5, align 4, !tbaa !11
  %19 = call noundef float @_ZSt3cosf(float noundef %18)
  store float %19, ptr %7, align 4, !tbaa !11
  %20 = load float, ptr %5, align 4, !tbaa !11
  %21 = call noundef float @_ZSt3sinf(float noundef %20)
  store float %21, ptr %8, align 4, !tbaa !11
  %22 = load float, ptr %7, align 4, !tbaa !11
  %23 = load ptr, ptr %4, align 8, !tbaa !28
  %24 = getelementptr inbounds float, ptr %23, i64 0
  %25 = load float, ptr %24, align 4, !tbaa !11
  %26 = load float, ptr %8, align 4, !tbaa !11
  %27 = load ptr, ptr %4, align 8, !tbaa !28
  %28 = getelementptr inbounds float, ptr %27, i64 1
  %29 = load float, ptr %28, align 4, !tbaa !11
  %30 = fmul float %26, %29
  %31 = call float @llvm.fmuladd.f32(float %22, float %25, float %30)
  store float %31, ptr %9, align 4, !tbaa !11
  %32 = load float, ptr %8, align 4, !tbaa !11
  %33 = fneg float %32
  %34 = load ptr, ptr %4, align 8, !tbaa !28
  %35 = getelementptr inbounds float, ptr %34, i64 0
  %36 = load float, ptr %35, align 4, !tbaa !11
  %37 = load float, ptr %7, align 4, !tbaa !11
  %38 = load ptr, ptr %4, align 8, !tbaa !28
  %39 = getelementptr inbounds float, ptr %38, i64 1
  %40 = load float, ptr %39, align 4, !tbaa !11
  %41 = fmul float %37, %40
  %42 = call float @llvm.fmuladd.f32(float %33, float %36, float %41)
  store float %42, ptr %10, align 4, !tbaa !11
  %43 = load float, ptr %10, align 4, !tbaa !11
  %44 = load float, ptr %9, align 4, !tbaa !11
  %45 = call noundef float @_ZSt5atan2ff(float noundef %43, float noundef %44)
  %46 = fpext float %45 to double
  %47 = fmul double 0x404CA5DC1A63C1F8, %46
  %48 = fptrunc double %47 to float
  store float %48, ptr %6, align 4, !tbaa !11
  %49 = load float, ptr %6, align 4, !tbaa !11
  call void @llvm.lifetime.end.p0(i64 4, ptr %10) #14
  call void @llvm.lifetime.end.p0(i64 4, ptr %9) #14
  call void @llvm.lifetime.end.p0(i64 4, ptr %8) #14
  call void @llvm.lifetime.end.p0(i64 4, ptr %7) #14
  call void @llvm.lifetime.end.p0(i64 4, ptr %6) #14
  call void @llvm.lifetime.end.p0(i64 4, ptr %5) #14
  ret float %49
}

; Function Attrs: mustprogress uwtable
define noundef float @_Z5twistiPKiPA3_f(i32 noundef %0, ptr noundef %1, ptr noundef %2) #0 {
  %4 = alloca i32, align 4
  %5 = alloca ptr, align 8
  %6 = alloca ptr, align 8
  %7 = alloca float, align 4
  %8 = alloca float, align 4
  %9 = alloca i32, align 4
  %10 = alloca i32, align 4
  %11 = alloca i32, align 4
  store i32 %0, ptr %4, align 4, !tbaa !4
  store ptr %1, ptr %5, align 8, !tbaa !26
  store ptr %2, ptr %6, align 8, !tbaa !28
  call void @llvm.lifetime.start.p0(i64 4, ptr %7) #14
  call void @llvm.lifetime.start.p0(i64 4, ptr %8) #14
  call void @llvm.lifetime.start.p0(i64 4, ptr %9) #14
  call void @llvm.lifetime.start.p0(i64 4, ptr %10) #14
  call void @llvm.lifetime.start.p0(i64 4, ptr %11) #14
  store float 0.000000e+00, ptr %7, align 4, !tbaa !11
  %12 = load ptr, ptr %5, align 8, !tbaa !26
  %13 = getelementptr inbounds i32, ptr %12, i64 0
  %14 = load i32, ptr %13, align 4, !tbaa !4
  store i32 %14, ptr %10, align 4, !tbaa !4
  store i32 1, ptr %9, align 4, !tbaa !4
  br label %15

15:                                               ; preds = %46, %3
  %16 = load i32, ptr %9, align 4, !tbaa !4
  %17 = load i32, ptr %4, align 4, !tbaa !4
  %18 = icmp slt i32 %16, %17
  br i1 %18, label %19, label %49

19:                                               ; preds = %15
  %20 = load ptr, ptr %5, align 8, !tbaa !26
  %21 = load i32, ptr %9, align 4, !tbaa !4
  %22 = sext i32 %21 to i64
  %23 = getelementptr inbounds i32, ptr %20, i64 %22
  %24 = load i32, ptr %23, align 4, !tbaa !4
  store i32 %24, ptr %11, align 4, !tbaa !4
  %25 = load ptr, ptr %6, align 8, !tbaa !28
  %26 = load i32, ptr %10, align 4, !tbaa !4
  %27 = sext i32 %26 to i64
  %28 = getelementptr inbounds [3 x float], ptr %25, i64 %27
  %29 = getelementptr inbounds [3 x float], ptr %28, i64 0, i64 0
  %30 = load ptr, ptr %6, align 8, !tbaa !28
  %31 = load i32, ptr %11, align 4, !tbaa !4
  %32 = sext i32 %31 to i64
  %33 = getelementptr inbounds [3 x float], ptr %30, i64 %32
  %34 = getelementptr inbounds [3 x float], ptr %33, i64 0, i64 0
  %35 = call noundef float @_ZL3rotPfPKf(ptr noundef %29, ptr noundef %34)
  store float %35, ptr %8, align 4, !tbaa !11
  %36 = load float, ptr %8, align 4, !tbaa !11
  %37 = fcmp olt float %36, -9.000000e+01
  br i1 %37, label %38, label %41

38:                                               ; preds = %19
  %39 = load float, ptr %8, align 4, !tbaa !11
  %40 = fadd float %39, 3.600000e+02
  store float %40, ptr %8, align 4, !tbaa !11
  br label %41

41:                                               ; preds = %38, %19
  %42 = load float, ptr %8, align 4, !tbaa !11
  %43 = load float, ptr %7, align 4, !tbaa !11
  %44 = fadd float %43, %42
  store float %44, ptr %7, align 4, !tbaa !11
  %45 = load i32, ptr %11, align 4, !tbaa !4
  store i32 %45, ptr %10, align 4, !tbaa !4
  br label %46

46:                                               ; preds = %41
  %47 = load i32, ptr %9, align 4, !tbaa !4
  %48 = add nsw i32 %47, 1
  store i32 %48, ptr %9, align 4, !tbaa !4
  br label %15, !llvm.loop !33

49:                                               ; preds = %15
  %50 = load float, ptr %7, align 4, !tbaa !11
  %51 = load i32, ptr %4, align 4, !tbaa !4
  %52 = sub nsw i32 %51, 1
  %53 = sitofp i32 %52 to float
  %54 = fdiv float %50, %53
  call void @llvm.lifetime.end.p0(i64 4, ptr %11) #14
  call void @llvm.lifetime.end.p0(i64 4, ptr %10) #14
  call void @llvm.lifetime.end.p0(i64 4, ptr %9) #14
  call void @llvm.lifetime.end.p0(i64 4, ptr %8) #14
  call void @llvm.lifetime.end.p0(i64 4, ptr %7) #14
  ret float %54
}