; Function Attrs: mustprogress nofree nounwind memory(write, argmem: readwrite) uwtable
define noundef float @_Z5twistiPKiPA3_f(i32 noundef %0, ptr noundef readonly captures(none) %1, ptr noundef readonly captures(none) %2) local_unnamed_addr #7 {
  %4 = icmp sgt i32 %0, 1
  br i1 %4, label %.lr.ph.preheader, label %._crit_edge

.lr.ph.preheader:                                 ; preds = %3
  %5 = load i32, ptr %1, align 4, !tbaa !20
  %wide.trip.count = zext nneg i32 %0 to i64
  %.phi.trans.insert = sext i32 %5 to i64
  %.phi.trans.insert28 = getelementptr inbounds [3 x float], ptr %2, i64 %.phi.trans.insert
  %.val.pre = load float, ptr %.phi.trans.insert28, align 4, !tbaa !21
  %.phi.trans.insert30 = getelementptr i8, ptr %.phi.trans.insert28, i64 4
  %.val21.pre = load float, ptr %.phi.trans.insert30, align 4, !tbaa !21
  br label %.lr.ph

.lr.ph:                                           ; preds = %.lr.ph.preheader, %.lr.ph
  %.val21 = phi float [ %.val21.pre, %.lr.ph.preheader ], [ %.val23, %.lr.ph ]
  %.val = phi float [ %.val.pre, %.lr.ph.preheader ], [ %.val22, %.lr.ph ]
  %indvars.iv = phi i64 [ 1, %.lr.ph.preheader ], [ %indvars.iv.next, %.lr.ph ]
  %.026 = phi float [ 0.000000e+00, %.lr.ph.preheader ], [ %25, %.lr.ph ]
  %6 = getelementptr inbounds nuw i32, ptr %1, i64 %indvars.iv
  %7 = load i32, ptr %6, align 4, !tbaa !20
  %8 = sext i32 %7 to i64
  %9 = getelementptr inbounds [3 x float], ptr %2, i64 %8
  %.val22 = load float, ptr %9, align 4, !tbaa !21
  %10 = getelementptr i8, ptr %9, i64 4
  %.val23 = load float, ptr %10, align 4, !tbaa !21
  %11 = tail call noundef float @atan2f(float noundef %.val21, float noundef %.val) #21, !tbaa !20
  %12 = tail call noundef float @cosf(float noundef %11) #21, !tbaa !20
  %13 = tail call noundef float @sinf(float noundef %11) #21, !tbaa !20
  %14 = fmul float %.val23, %13
  %15 = tail call float @llvm.fmuladd.f32(float %12, float %.val22, float %14)
  %16 = fneg float %13
  %17 = fmul float %.val23, %12
  %18 = tail call float @llvm.fmuladd.f32(float %16, float %.val22, float %17)
  %19 = tail call noundef float @atan2f(float noundef %18, float noundef %15) #21, !tbaa !20
  %20 = fpext float %19 to double
  %21 = fmul double %20, 0x404CA5DC1A63C1F8
  %22 = fptrunc double %21 to float
  %23 = fcmp olt float %22, -9.000000e+01
  %24 = fadd float %22, 3.600000e+02
  %.018 = select i1 %23, float %24, float %22
  %25 = fadd float %.026, %.018
  %indvars.iv.next = add nuw nsw i64 %indvars.iv, 1
  %exitcond.not = icmp eq i64 %indvars.iv.next, %wide.trip.count
  br i1 %exitcond.not, label %._crit_edge, label %.lr.ph, !llvm.loop !23

._crit_edge:                                      ; preds = %.lr.ph, %3
  %.0.lcssa = phi float [ 0.000000e+00, %3 ], [ %25, %.lr.ph ]
  %26 = add nsw i32 %0, -1
  %27 = sitofp i32 %26 to float
  %28 = fdiv float %.0.lcssa, %27
  ret float %28
}